; Function Attrs: mustprogress uwtable
define hidden void @_ZN3euf14specrel_plugin8diseq_ehEPNS_5enodeE(ptr nocapture noundef nonnull readonly align 8 dereferenceable(72) %this, ptr noundef %eq) unnamed_addr #3 align 2 {
entry:
  %m_plugins = getelementptr inbounds i8, ptr %this, i64 16
  %0 = load ptr, ptr %m_plugins, align 8
  %cmp.i.i.i = icmp eq ptr %0, null
  br i1 %cmp.i.i.i, label %for.end, label %_ZNK17scoped_ptr_vectorIN3euf9ac_pluginEE3endEv.exit

_ZNK17scoped_ptr_vectorIN3euf9ac_pluginEE3endEv.exit: ; preds = %entry
  %arrayidx.i.i.i = getelementptr inbounds i8, ptr %0, i64 -4
  %1 = load i32, ptr %arrayidx.i.i.i, align 4
  %2 = zext i32 %1 to i64
  %add.ptr.i.i = getelementptr inbounds ptr, ptr %0, i64 %2
  %cmp.not4 = icmp eq i32 %1, 0
  br i1 %cmp.not4, label %for.end, label %for.body

for.body:                                         ; preds = %_ZNK17scoped_ptr_vectorIN3euf9ac_pluginEE3endEv.exit, %for.body
  %__begin1.05 = phi ptr [ %incdec.ptr, %for.body ], [ %0, %_ZNK17scoped_ptr_vectorIN3euf9ac_pluginEE3endEv.exit ]
  %3 = load ptr, ptr %__begin1.05, align 8
  %vtable = load ptr, ptr %3, align 8
  %vfn = getelementptr inbounds i8, ptr %vtable, i64 40
  %4 = load ptr, ptr %vfn, align 8
  tail call void %4(ptr noundef nonnull align 8 dereferenceable(432) %3, ptr noundef %eq)
  %incdec.ptr = getelementptr inbounds i8, ptr %__begin1.05, i64 8
  %cmp.not = icmp eq ptr %incdec.ptr, %add.ptr.i.i
  br i1 %cmp.not, label %for.end, label %for.body

for.end:                                          ; preds = %for.body, %entry, %_ZNK17scoped_ptr_vectorIN3euf9ac_pluginEE3endEv.exit
  ret void
}